ccopy_reg
_reconstructor
p0
(csklearn.linear_model.base
LinearRegression
p1
c__builtin__
object
p2
Ntp3
Rp4
(dp5
S'normalize'
p6
I00
sS'n_jobs'
p7
I-1
sS'rank_'
p8
I4
sS'fit_intercept'
p9
I01
sS'_residues'
p10
cnumpy.core.multiarray
scalar
p11
(cnumpy
dtype
p12
(S'f8'
p13
I0
I1
tp14
Rp15
(I3
S'<'
p16
NNNI-1
I-1
I0
tp17
bS'D^\xdc\x1d\x05\x94IA'
p18
tp19
Rp20
sS'coef_'
p21
cnumpy.core.multiarray
_reconstruct
p22
(cnumpy
ndarray
p23
(I0
tp24
S'b'
p25
tp26
Rp27
(I1
(I4
tp28
g15
I00
S'\xfc\xa9Pq\xd7Il@\xc0,\xb8\xb9\x16k\xfd\xbfk\x18\xf1\xab\x10{\xf4\xbf\x12}\xc4p\x98\xa3\x07\xc0'
p29
tp30
bsS'_sklearn_version'
p31
S'0.19.0'
p32
sS'copy_X'
p33
I01
sS'intercept_'
p34
g11
(g15
S'\xb1\xb5Q)j\x8ax@'
p35
tp36
Rp37
sS'singular_'
p38
g22
(g23
(I0
tp39
g25
tp40
Rp41
(I1
(I4
tp42
g15
I00
S'\xb3\x9b\xe4\xfaE\x93Q@i\x92\xb4\x0f\xc4\xa1M@\xdd\xbe(p\x1e\x0fA@\xecO\xe9:\x04\xe56@'
p43
tp44
bsb.